; ModuleID = '51/82.c'
source_filename = "51/82.c"
target datalayout = "e-m:e-p270:32:32-p271:32:32-p272:64:64-i64:64-f80:128-n8:16:32:64-S128"
target triple = "x86_64-pc-linux-gnu"

@.str = private unnamed_addr constant [3 x i8] c"%d\00", align 1
@.str.1 = private unnamed_addr constant [3 x i8] c"%s\00", align 1
@.str.2 = private unnamed_addr constant [4 x i8] c"%d\0A\00", align 1
@.str.3 = private unnamed_addr constant [4 x i8] c"%s\0A\00", align 1
@.str.4 = private unnamed_addr constant [3 x i8] c"NO\00", align 1

; Function Attrs: noinline nounwind uwtable
define dso_local i32 @main() #0 {
  %1 = alloca i32, align 4
  %2 = alloca i32, align 4
  %3 = alloca i32, align 4
  %4 = alloca i32, align 4
  %5 = alloca i32, align 4
  %6 = alloca i32, align 4
  %7 = alloca i32, align 4
  %8 = alloca [1000 x [6 x i8]], align 16
  %9 = alloca [1000 x i8], align 16
  store i32 0, i32* %1, align 4
  store i32 0, i32* %5, align 4
  store i32 0, i32* %6, align 4
  %10 = call i32 (i8*, ...) @__isoc99_scanf(i8* getelementptr inbounds ([3 x i8], [3 x i8]* @.str, i64 0, i64 0), i32* %2)
  %11 = getelementptr inbounds [1000 x i8], [1000 x i8]* %9, i64 0, i64 0
  %12 = call i32 (i8*, ...) @__isoc99_scanf(i8* getelementptr inbounds ([3 x i8], [3 x i8]* @.str.1, i64 0, i64 0), i8* %11)
  %13 = getelementptr inbounds [1000 x i8], [1000 x i8]* %9, i64 0, i64 0
  %14 = call i64 @strlen(i8* %13) #3
  %15 = trunc i64 %14 to i32
  store i32 %15, i32* %7, align 4
  store i32 0, i32* %3, align 4
  br label %16

16:                                               ; preds = %46, %0
  %17 = load i32, i32* %3, align 4
  %18 = load i32, i32* %7, align 4
  %19 = icmp slt i32 %17, %18
  br i1 %19, label %20, label %49

20:                                               ; preds = %16
  %21 = load i32, i32* %3, align 4
  %22 = sext i32 %21 to i64
  %23 = getelementptr inbounds [1000 x [6 x i8]], [1000 x [6 x i8]]* %8, i64 0, i64 %22
  %24 = getelementptr inbounds [6 x i8], [6 x i8]* %23, i64 0, i64 5
  store i8 1, i8* %24, align 1
  store i32 0, i32* %4, align 4
  br label %25

25:                                               ; preds = %42, %20
  %26 = load i32, i32* %4, align 4
  %27 = load i32, i32* %2, align 4
  %28 = icmp slt i32 %26, %27
  br i1 %28, label %29, label %45

29:                                               ; preds = %25
  %30 = load i32, i32* %3, align 4
  %31 = load i32, i32* %4, align 4
  %32 = add nsw i32 %30, %31
  %33 = sext i32 %32 to i64
  %34 = getelementptr inbounds [1000 x i8], [1000 x i8]* %9, i64 0, i64 %33
  %35 = load i8, i8* %34, align 1
  %36 = load i32, i32* %3, align 4
  %37 = sext i32 %36 to i64
  %38 = getelementptr inbounds [1000 x [6 x i8]], [1000 x [6 x i8]]* %8, i64 0, i64 %37
  %39 = load i32, i32* %4, align 4
  %40 = sext i32 %39 to i64
  %41 = getelementptr inbounds [6 x i8], [6 x i8]* %38, i64 0, i64 %40
  store i8 %35, i8* %41, align 1
  br label %42

42:                                               ; preds = %29
  %43 = load i32, i32* %4, align 4
  %44 = add nsw i32 %43, 1
  store i32 %44, i32* %4, align 4
  br label %25

45:                                               ; preds = %25
  br label %46

46:                                               ; preds = %45
  %47 = load i32, i32* %3, align 4
  %48 = add nsw i32 %47, 1
  store i32 %48, i32* %3, align 4
  br label %16

49:                                               ; preds = %16
  store i32 0, i32* %3, align 4
  br label %50

50:                                               ; preds = %84, %49
  %51 = load i32, i32* %3, align 4
  %52 = load i32, i32* %7, align 4
  %53 = icmp slt i32 %51, %52
  br i1 %53, label %54, label %87

54:                                               ; preds = %50
  %55 = load i32, i32* %3, align 4
  %56 = add nsw i32 %55, 1
  store i32 %56, i32* %4, align 4
  br label %57

57:                                               ; preds = %80, %54
  %58 = load i32, i32* %4, align 4
  %59 = load i32, i32* %7, align 4
  %60 = icmp slt i32 %58, %59
  br i1 %60, label %61, label %83

61:                                               ; preds = %57
  %62 = load i32, i32* %3, align 4
  %63 = sext i32 %62 to i64
  %64 = getelementptr inbounds [1000 x [6 x i8]], [1000 x [6 x i8]]* %8, i64 0, i64 %63
  %65 = getelementptr inbounds [6 x i8], [6 x i8]* %64, i64 0, i64 0
  %66 = load i32, i32* %4, align 4
  %67 = sext i32 %66 to i64
  %68 = getelementptr inbounds [1000 x [6 x i8]], [1000 x [6 x i8]]* %8, i64 0, i64 %67
  %69 = getelementptr inbounds [6 x i8], [6 x i8]* %68, i64 0, i64 0
  %70 = call i32 @strcmp(i8* %65, i8* %69) #3
  %71 = icmp eq i32 %70, 0
  br i1 %71, label %72, label %79

72:                                               ; preds = %61
  %73 = load i32, i32* %3, align 4
  %74 = sext i32 %73 to i64
  %75 = getelementptr inbounds [1000 x [6 x i8]], [1000 x [6 x i8]]* %8, i64 0, i64 %74
  %76 = getelementptr inbounds [6 x i8], [6 x i8]* %75, i64 0, i64 5
  %77 = load i8, i8* %76, align 1
  %78 = add i8 %77, 1
  store i8 %78, i8* %76, align 1
  br label %79

79:                                               ; preds = %72, %61
  br label %80

80:                                               ; preds = %79
  %81 = load i32, i32* %4, align 4
  %82 = add nsw i32 %81, 1
  store i32 %82, i32* %4, align 4
  br label %57

83:                                               ; preds = %57
  br label %84

84:                                               ; preds = %83
  %85 = load i32, i32* %3, align 4
  %86 = add nsw i32 %85, 1
  store i32 %86, i32* %3, align 4
  br label %50

87:                                               ; preds = %50
  store i32 0, i32* %3, align 4
  br label %88

88:                                               ; preds = %109, %87
  %89 = load i32, i32* %3, align 4
  %90 = load i32, i32* %7, align 4
  %91 = icmp slt i32 %89, %90
  br i1 %91, label %92, label %112

92:                                               ; preds = %88
  %93 = load i32, i32* %3, align 4
  %94 = sext i32 %93 to i64
  %95 = getelementptr inbounds [1000 x [6 x i8]], [1000 x [6 x i8]]* %8, i64 0, i64 %94
  %96 = getelementptr inbounds [6 x i8], [6 x i8]* %95, i64 0, i64 5
  %97 = load i8, i8* %96, align 1
  %98 = sext i8 %97 to i32
  %99 = load i32, i32* %5, align 4
  %100 = icmp sgt i32 %98, %99
  br i1 %100, label %101, label %108

101:                                              ; preds = %92
  %102 = load i32, i32* %3, align 4
  %103 = sext i32 %102 to i64
  %104 = getelementptr inbounds [1000 x [6 x i8]], [1000 x [6 x i8]]* %8, i64 0, i64 %103
  %105 = getelementptr inbounds [6 x i8], [6 x i8]* %104, i64 0, i64 5
  %106 = load i8, i8* %105, align 1
  %107 = sext i8 %106 to i32
  store i32 %107, i32* %5, align 4
  br label %108

108:                                              ; preds = %101, %92
  br label %109

109:                                              ; preds = %108
  %110 = load i32, i32* %3, align 4
  %111 = add nsw i32 %110, 1
  store i32 %111, i32* %3, align 4
  br label %88

112:                                              ; preds = %88
  %113 = load i32, i32* %5, align 4
  %114 = icmp sgt i32 %113, 1
  br i1 %114, label %115, label %142

115:                                              ; preds = %112
  %116 = load i32, i32* %5, align 4
  %117 = call i32 (i8*, ...) @printf(i8* getelementptr inbounds ([4 x i8], [4 x i8]* @.str.2, i64 0, i64 0), i32 %116)
  store i32 0, i32* %3, align 4
  br label %118

118:                                              ; preds = %138, %115
  %119 = load i32, i32* %3, align 4
  %120 = load i32, i32* %7, align 4
  %121 = icmp slt i32 %119, %120
  br i1 %121, label %122, label %141

122:                                              ; preds = %118
  %123 = load i32, i32* %3, align 4
  %124 = sext i32 %123 to i64
  %125 = getelementptr inbounds [1000 x [6 x i8]], [1000 x [6 x i8]]* %8, i64 0, i64 %124
  %126 = getelementptr inbounds [6 x i8], [6 x i8]* %125, i64 0, i64 5
  %127 = load i8, i8* %126, align 1
  %128 = sext i8 %127 to i32
  %129 = load i32, i32* %5, align 4
  %130 = icmp eq i32 %128, %129
  br i1 %130, label %131, label %137

131:                                              ; preds = %122
  %132 = load i32, i32* %3, align 4
  %133 = sext i32 %132 to i64
  %134 = getelementptr inbounds [1000 x [6 x i8]], [1000 x [6 x i8]]* %8, i64 0, i64 %133
  %135 = getelementptr inbounds [6 x i8], [6 x i8]* %134, i64 0, i64 0
  %136 = call i32 (i8*, ...) @printf(i8* getelementptr inbounds ([4 x i8], [4 x i8]* @.str.3, i64 0, i64 0), i8* %135)
  br label %137

137:                                              ; preds = %131, %122
  br label %138

138:                                              ; preds = %137
  %139 = load i32, i32* %3, align 4
  %140 = add nsw i32 %139, 1
  store i32 %140, i32* %3, align 4
  br label %118

141:                                              ; preds = %118
  br label %144

142:                                              ; preds = %112
  %143 = call i32 (i8*, ...) @printf(i8* getelementptr inbounds ([3 x i8], [3 x i8]* @.str.4, i64 0, i64 0))
  br label %144

144:                                              ; preds = %142, %141
  ret i32 0
}

declare dso_local i32 @__isoc99_scanf(i8*, ...) #1

; Function Attrs: nounwind readonly
declare dso_local i64 @strlen(i8*) #2

; Function Attrs: nounwind readonly
declare dso_local i32 @strcmp(i8*, i8*) #2

declare dso_local i32 @printf(i8*, ...) #1


!llvm.module.flags = !{!0}
!llvm.ident = !{!1}

!0 = !{i32 1, !"wchar_size", i32 4}
!1 = !{!"clang version 10.0.0-4ubuntu1 "}
